target datalayout = "e-m:e-p270:32:32-p271:32:32-p272:64:64-i64:64-i128:128-f80:128-n8:16:32:64-S128"
target triple = "x86_64-pc-linux-gnu"

%struct.ColorContext = type { ptr }
%struct.SwsFilterDescriptor = type { ptr, ptr, i32, ptr, ptr }
%struct.SwsSlice = type { i32, i32, i32, i32, i32, i32, [4 x %struct.SwsPlane] }
%struct.SwsPlane = type { i32, i32, i32, ptr, ptr }
%struct.AVPixFmtDescriptor = type { ptr, i8, i8, i8, i64, [4 x %struct.AVComponentDescriptor], ptr }
%struct.AVComponentDescriptor = type { i32, i32, i32, i32, i32 }

@.str = private unnamed_addr constant [30 x i8] c"Assertion %s failed at %s:%d\0A\00", align 1
@.str.1 = private unnamed_addr constant [5 x i8] c"desc\00", align 1
@.str.2 = private unnamed_addr constant [30 x i8] c"libswscale/swscale_internal.h\00", align 1

; Function Attrs: alwaysinline nounwind uwtable
define internal i32 @isALPHA(i32 noundef %0) #3 {
  %2 = alloca i32, align 4
  %3 = alloca i32, align 4
  %4 = alloca ptr, align 8
  %5 = alloca i32, align 4
  store i32 %0, ptr %3, align 4, !tbaa !26
  call void @llvm.lifetime.start.p0(i64 8, ptr %4) #6
  %6 = load i32, ptr %3, align 4, !tbaa !26
  %7 = call ptr @av_pix_fmt_desc_get(i32 noundef %6)
  store ptr %7, ptr %4, align 8, !tbaa !27
  br label %8

8:                                                ; preds = %1
  %9 = load ptr, ptr %4, align 8, !tbaa !27
  %10 = icmp ne ptr %9, null
  br i1 %10, label %12, label %11

11:                                               ; preds = %8
  call void (ptr, i32, ptr, ...) @av_log(ptr noundef null, i32 noundef 0, ptr noundef @.str, ptr noundef @.str.1, ptr noundef @.str.2, i32 noundef 881)
  call void @abort() #7
  unreachable

12:                                               ; preds = %8
  br label %13

13:                                               ; preds = %12
  br label %14

14:                                               ; preds = %13
  %15 = load i32, ptr %3, align 4, !tbaa !26
  %16 = icmp eq i32 %15, 11
  br i1 %16, label %17, label %18

17:                                               ; preds = %14
  store i32 1, ptr %2, align 4
  store i32 1, ptr %5, align 4
  br label %24

18:                                               ; preds = %14
  %19 = load ptr, ptr %4, align 8, !tbaa !27
  %20 = getelementptr inbounds nuw %struct.AVPixFmtDescriptor, ptr %19, i32 0, i32 4
  %21 = load i64, ptr %20, align 8, !tbaa !29
  %22 = and i64 %21, 128
  %23 = trunc i64 %22 to i32
  store i32 %23, ptr %2, align 4
  store i32 1, ptr %5, align 4
  br label %24

24:                                               ; preds = %18, %17
  call void @llvm.lifetime.end.p0(i64 8, ptr %4) #6
  %25 = load i32, ptr %2, align 4
  ret i32 %25
}

; Function Attrs: nounwind uwtable
define i32 @ff_init_desc_fmt_convert(ptr noundef %0, ptr noundef %1, ptr noundef %2, ptr noundef %3) #0 {
  %5 = alloca i32, align 4
  %6 = alloca ptr, align 8
  %7 = alloca ptr, align 8
  %8 = alloca ptr, align 8
  %9 = alloca ptr, align 8
  %10 = alloca ptr, align 8
  %11 = alloca i32, align 4
  store ptr %0, ptr %6, align 8, !tbaa !4
  store ptr %1, ptr %7, align 8, !tbaa !9
  store ptr %2, ptr %8, align 8, !tbaa !9
  store ptr %3, ptr %9, align 8, !tbaa !11
  call void @llvm.lifetime.start.p0(i64 8, ptr %10) #6
  %12 = call noalias ptr @av_malloc(i64 noundef 8)
  store ptr %12, ptr %10, align 8, !tbaa !13
  %13 = load ptr, ptr %10, align 8, !tbaa !13
  %14 = icmp ne ptr %13, null
  br i1 %14, label %16, label %15

15:                                               ; preds = %4
  store i32 -12, ptr %5, align 4
  store i32 1, ptr %11, align 4
  br label %47

16:                                               ; preds = %4
  %17 = load ptr, ptr %9, align 8, !tbaa !11
  %18 = load ptr, ptr %10, align 8, !tbaa !13
  %19 = getelementptr inbounds nuw %struct.ColorContext, ptr %18, i32 0, i32 0
  store ptr %17, ptr %19, align 8, !tbaa !15
  %20 = load ptr, ptr %10, align 8, !tbaa !13
  %21 = load ptr, ptr %6, align 8, !tbaa !4
  %22 = getelementptr inbounds nuw %struct.SwsFilterDescriptor, ptr %21, i32 0, i32 3
  store ptr %20, ptr %22, align 8, !tbaa !17
  %23 = load ptr, ptr %7, align 8, !tbaa !9
  %24 = getelementptr inbounds nuw %struct.SwsSlice, ptr %23, i32 0, i32 5
  %25 = load i32, ptr %24, align 4, !tbaa !20
  %26 = call i32 @isALPHA(i32 noundef %25)
  %27 = icmp ne i32 %26, 0
  br i1 %27, label %28, label %34

28:                                               ; preds = %16
  %29 = load ptr, ptr %8, align 8, !tbaa !9
  %30 = getelementptr inbounds nuw %struct.SwsSlice, ptr %29, i32 0, i32 5
  %31 = load i32, ptr %30, align 4, !tbaa !20
  %32 = call i32 @isALPHA(i32 noundef %31)
  %33 = icmp ne i32 %32, 0
  br label %34

34:                                               ; preds = %28, %16
  %35 = phi i1 [ false, %16 ], [ %33, %28 ]
  %36 = zext i1 %35 to i32
  %37 = load ptr, ptr %6, align 8, !tbaa !4
  %38 = getelementptr inbounds nuw %struct.SwsFilterDescriptor, ptr %37, i32 0, i32 2
  store i32 %36, ptr %38, align 8, !tbaa !22
  %39 = load ptr, ptr %7, align 8, !tbaa !9
  %40 = load ptr, ptr %6, align 8, !tbaa !4
  %41 = getelementptr inbounds nuw %struct.SwsFilterDescriptor, ptr %40, i32 0, i32 0
  store ptr %39, ptr %41, align 8, !tbaa !23
  %42 = load ptr, ptr %8, align 8, !tbaa !9
  %43 = load ptr, ptr %6, align 8, !tbaa !4
  %44 = getelementptr inbounds nuw %struct.SwsFilterDescriptor, ptr %43, i32 0, i32 1
  store ptr %42, ptr %44, align 8, !tbaa !24
  %45 = load ptr, ptr %6, align 8, !tbaa !4
  %46 = getelementptr inbounds nuw %struct.SwsFilterDescriptor, ptr %45, i32 0, i32 4
  store ptr @lum_convert, ptr %46, align 8, !tbaa !25
  store i32 0, ptr %5, align 4
  store i32 1, ptr %11, align 4
  br label %47

47:                                               ; preds = %34, %15
  call void @llvm.lifetime.end.p0(i64 8, ptr %10) #6
  %48 = load i32, ptr %5, align 4
  ret i32 %48
}