; Function Attrs: nounwind uwtable
define range(i32 -12, 1) i32 @ff_init_desc_fmt_convert(ptr noundef writeonly captures(none) %0, ptr noundef %1, ptr noundef %2, ptr noundef %3) local_unnamed_addr #0 {
  %5 = tail call noalias ptr @av_malloc(i64 noundef 8) #6
  %.not = icmp eq ptr %5, null
  br i1 %.not, label %33, label %6

6:                                                ; preds = %4
  store ptr %3, ptr %5, align 8, !tbaa !4
  %7 = getelementptr inbounds nuw i8, ptr %0, i64 24
  store ptr %5, ptr %7, align 8, !tbaa !10
  %8 = getelementptr inbounds nuw i8, ptr %1, i64 20
  %9 = load i32, ptr %8, align 4, !tbaa !14
  %10 = tail call ptr @av_pix_fmt_desc_get(i32 noundef %9) #6
  %.not.i = icmp eq ptr %10, null
  br i1 %.not.i, label %11, label %12

11:                                               ; preds = %6
  tail call void (ptr, i32, ptr, ...) @av_log(ptr noundef null, i32 noundef 0, ptr noundef nonnull @.str, ptr noundef nonnull @.str.1, ptr noundef nonnull @.str.2, i32 noundef 881) #6
  tail call void @abort() #7
  unreachable

12:                                               ; preds = %6
  %13 = icmp eq i32 %9, 11
  br i1 %13, label %isALPHA.exit.thread, label %isALPHA.exit

isALPHA.exit:                                     ; preds = %12
  %14 = getelementptr inbounds nuw i8, ptr %10, i64 16
  %15 = load i64, ptr %14, align 8, !tbaa !16
  %16 = and i64 %15, 128
  %.not14 = icmp eq i64 %16, 0
  br i1 %.not14, label %isALPHA.exit17, label %isALPHA.exit.thread

isALPHA.exit.thread:                              ; preds = %12, %isALPHA.exit
  %17 = getelementptr inbounds nuw i8, ptr %2, i64 20
  %18 = load i32, ptr %17, align 4, !tbaa !14
  %19 = tail call ptr @av_pix_fmt_desc_get(i32 noundef %18) #6
  %.not.i15 = icmp eq ptr %19, null
  br i1 %.not.i15, label %20, label %21

20:                                               ; preds = %isALPHA.exit.thread
  tail call void (ptr, i32, ptr, ...) @av_log(ptr noundef null, i32 noundef 0, ptr noundef nonnull @.str, ptr noundef nonnull @.str.1, ptr noundef nonnull @.str.2, i32 noundef 881) #6
  tail call void @abort() #7
  unreachable

21:                                               ; preds = %isALPHA.exit.thread
  %22 = icmp eq i32 %18, 11
  br i1 %22, label %isALPHA.exit17, label %23

23:                                               ; preds = %21
  %24 = getelementptr inbounds nuw i8, ptr %19, i64 16
  %25 = load i64, ptr %24, align 8, !tbaa !16
  %26 = trunc i64 %25 to i32
  %27 = lshr i32 %26, 7
  %28 = and i32 %27, 1
  br label %isALPHA.exit17

isALPHA.exit17:                                   ; preds = %23, %21, %isALPHA.exit
  %29 = phi i32 [ 0, %isALPHA.exit ], [ %28, %23 ], [ 1, %21 ]
  %30 = getelementptr inbounds nuw i8, ptr %0, i64 16
  store i32 %29, ptr %30, align 8, !tbaa !20
  store ptr %1, ptr %0, align 8, !tbaa !21
  %31 = getelementptr inbounds nuw i8, ptr %0, i64 8
  store ptr %2, ptr %31, align 8, !tbaa !22
  %32 = getelementptr inbounds nuw i8, ptr %0, i64 32
  store ptr @lum_convert, ptr %32, align 8, !tbaa !23
  br label %33

33:                                               ; preds = %4, %isALPHA.exit17
  %.0 = phi i32 [ 0, %isALPHA.exit17 ], [ -12, %4 ]
  ret i32 %.0
}